; ModuleID = '38/275.cpp'
source_filename = "38/275.cpp"
target datalayout = "e-m:e-p270:32:32-p271:32:32-p272:64:64-i64:64-f80:128-n8:16:32:64-S128"
target triple = "x86_64-pc-linux-gnu"

%"class.std::ios_base::Init" = type { i8 }
%"class.std::basic_istream" = type { i32 (...)**, i64, %"class.std::basic_ios" }
%"class.std::basic_ios" = type { %"class.std::ios_base", %"class.std::basic_ostream"*, i8, i8, %"class.std::basic_streambuf"*, %"class.std::ctype"*, %"class.std::num_put"*, %"class.std::num_get"* }
%"class.std::ios_base" = type { i32 (...)**, i64, i64, i32, i32, i32, %"struct.std::ios_base::_Callback_list"*, %"struct.std::ios_base::_Words", [8 x %"struct.std::ios_base::_Words"], i32, %"struct.std::ios_base::_Words"*, %"class.std::locale" }
%"struct.std::ios_base::_Callback_list" = type { %"struct.std::ios_base::_Callback_list"*, void (i32, %"class.std::ios_base"*, i32)*, i32, i32 }
%"struct.std::ios_base::_Words" = type { i8*, i64 }
%"class.std::locale" = type { %"class.std::locale::_Impl"* }
%"class.std::locale::_Impl" = type { i32, %"class.std::locale::facet"**, i64, %"class.std::locale::facet"**, i8** }
%"class.std::locale::facet" = type <{ i32 (...)**, i32, [4 x i8] }>
%"class.std::basic_ostream" = type { i32 (...)**, %"class.std::basic_ios" }
%"class.std::basic_streambuf" = type { i32 (...)**, i8*, i8*, i8*, i8*, i8*, i8*, %"class.std::locale" }
%"class.std::ctype" = type <{ %"class.std::locale::facet.base", [4 x i8], %struct.__locale_struct*, i8, [7 x i8], i32*, i32*, i16*, i8, [256 x i8], [256 x i8], i8, [6 x i8] }>
%"class.std::locale::facet.base" = type <{ i32 (...)**, i32 }>
%struct.__locale_struct = type { [13 x %struct.__locale_data*], i16*, i32*, i32*, [13 x i8*] }
%struct.__locale_data = type opaque
%"class.std::num_put" = type { %"class.std::locale::facet.base", [4 x i8] }
%"class.std::num_get" = type { %"class.std::locale::facet.base", [4 x i8] }

@_ZStL8__ioinit = internal global %"class.std::ios_base::Init" zeroinitializer, align 1
@__dso_handle = external hidden global i8
@_ZSt3cin = external dso_local global %"class.std::basic_istream", align 8
@.str = private unnamed_addr constant [7 x i8] c"%.5lf\0A\00", align 1
@llvm.global_ctors = appending global [1 x { i32, void ()*, i8* }] [{ i32, void ()*, i8* } { i32 65535, void ()* @_GLOBAL__sub_I_275.cpp, i8* null }]

; Function Attrs: noinline uwtable
define internal void @__cxx_global_var_init() #0 section ".text.startup" {
  call void @_ZNSt8ios_base4InitC1Ev(%"class.std::ios_base::Init"* @_ZStL8__ioinit)
  %1 = call i32 @__cxa_atexit(void (i8*)* bitcast (void (%"class.std::ios_base::Init"*)* @_ZNSt8ios_base4InitD1Ev to void (i8*)*), i8* getelementptr inbounds (%"class.std::ios_base::Init", %"class.std::ios_base::Init"* @_ZStL8__ioinit, i32 0, i32 0), i8* @__dso_handle) #3
  ret void
}

declare dso_local void @_ZNSt8ios_base4InitC1Ev(%"class.std::ios_base::Init"*) unnamed_addr #1

; Function Attrs: nounwind
declare dso_local void @_ZNSt8ios_base4InitD1Ev(%"class.std::ios_base::Init"*) unnamed_addr #2

; Function Attrs: nounwind
declare dso_local i32 @__cxa_atexit(void (i8*)*, i8*, i8*) #3

; Function Attrs: noinline norecurse uwtable
define dso_local i32 @main() #4 {
  %1 = alloca i32, align 4
  %2 = alloca i32, align 4
  %3 = alloca i32, align 4
  %4 = alloca [102 x double], align 16
  %5 = alloca i32, align 4
  %6 = alloca double*, align 8
  %7 = alloca double, align 8
  %8 = alloca double, align 8
  store i32 0, i32* %1, align 4
  %9 = call dereferenceable(280) %"class.std::basic_istream"* @_ZNSirsERi(%"class.std::basic_istream"* @_ZSt3cin, i32* dereferenceable(4) %2)
  br label %10

10:                                               ; preds = %70, %0
  %11 = load i32, i32* %2, align 4
  %12 = add nsw i32 %11, -1
  store i32 %12, i32* %2, align 4
  %13 = icmp ne i32 %11, 0
  br i1 %13, label %14, label %79

14:                                               ; preds = %10
  %15 = call dereferenceable(280) %"class.std::basic_istream"* @_ZNSirsERi(%"class.std::basic_istream"* @_ZSt3cin, i32* dereferenceable(4) %3)
  store i32 0, i32* %5, align 4
  br label %16

16:                                               ; preds = %25, %14
  %17 = load i32, i32* %5, align 4
  %18 = load i32, i32* %3, align 4
  %19 = icmp slt i32 %17, %18
  br i1 %19, label %20, label %28

20:                                               ; preds = %16
  %21 = load i32, i32* %5, align 4
  %22 = sext i32 %21 to i64
  %23 = getelementptr inbounds [102 x double], [102 x double]* %4, i64 0, i64 %22
  %24 = call dereferenceable(280) %"class.std::basic_istream"* @_ZNSirsERd(%"class.std::basic_istream"* @_ZSt3cin, double* dereferenceable(8) %23)
  br label %25

25:                                               ; preds = %20
  %26 = load i32, i32* %5, align 4
  %27 = add nsw i32 %26, 1
  store i32 %27, i32* %5, align 4
  br label %16

28:                                               ; preds = %16
  %29 = getelementptr inbounds [102 x double], [102 x double]* %4, i64 0, i64 0
  store double* %29, double** %6, align 8
  %30 = getelementptr inbounds [102 x double], [102 x double]* %4, i64 0, i64 0
  store double* %30, double** %6, align 8
  store double 0.000000e+00, double* %7, align 8
  br label %31

31:                                               ; preds = %37, %28
  %32 = load double*, double** %6, align 8
  %33 = load i32, i32* %3, align 4
  %34 = sext i32 %33 to i64
  %35 = getelementptr inbounds [102 x double], [102 x double]* %4, i64 0, i64 %34
  %36 = icmp ult double* %32, %35
  br i1 %36, label %37, label %44

37:                                               ; preds = %31
  %38 = load double*, double** %6, align 8
  %39 = load double, double* %38, align 8
  %40 = load double, double* %7, align 8
  %41 = fadd double %40, %39
  store double %41, double* %7, align 8
  %42 = load double*, double** %6, align 8
  %43 = getelementptr inbounds double, double* %42, i32 1
  store double* %43, double** %6, align 8
  br label %31

44:                                               ; preds = %31
  %45 = load i32, i32* %3, align 4
  %46 = sitofp i32 %45 to double
  %47 = load double, double* %7, align 8
  %48 = fdiv double %47, %46
  store double %48, double* %7, align 8
  store double 0.000000e+00, double* %8, align 8
  %49 = getelementptr inbounds [102 x double], [102 x double]* %4, i64 0, i64 0
  store double* %49, double** %6, align 8
  br label %50

50:                                               ; preds = %56, %44
  %51 = load double*, double** %6, align 8
  %52 = load i32, i32* %3, align 4
  %53 = sext i32 %52 to i64
  %54 = getelementptr inbounds [102 x double], [102 x double]* %4, i64 0, i64 %53
  %55 = icmp ult double* %51, %54
  br i1 %55, label %56, label %70

56:                                               ; preds = %50
  %57 = load double*, double** %6, align 8
  %58 = load double, double* %57, align 8
  %59 = load double, double* %7, align 8
  %60 = fsub double %58, %59
  %61 = load double*, double** %6, align 8
  %62 = load double, double* %61, align 8
  %63 = load double, double* %7, align 8
  %64 = fsub double %62, %63
  %65 = fmul double %60, %64
  %66 = load double, double* %8, align 8
  %67 = fadd double %66, %65
  store double %67, double* %8, align 8
  %68 = load double*, double** %6, align 8
  %69 = getelementptr inbounds double, double* %68, i32 1
  store double* %69, double** %6, align 8
  br label %50

70:                                               ; preds = %50
  %71 = load i32, i32* %3, align 4
  %72 = sitofp i32 %71 to double
  %73 = load double, double* %8, align 8
  %74 = fdiv double %73, %72
  store double %74, double* %8, align 8
  %75 = load double, double* %8, align 8
  %76 = call double @sqrt(double %75) #3
  store double %76, double* %8, align 8
  %77 = load double, double* %8, align 8
  %78 = call i32 (i8*, ...) @printf(i8* getelementptr inbounds ([7 x i8], [7 x i8]* @.str, i64 0, i64 0), double %77)
  br label %10

79:                                               ; preds = %10
  ret i32 0
}

declare dso_local dereferenceable(280) %"class.std::basic_istream"* @_ZNSirsERi(%"class.std::basic_istream"*, i32* dereferenceable(4)) #1

declare dso_local dereferenceable(280) %"class.std::basic_istream"* @_ZNSirsERd(%"class.std::basic_istream"*, double* dereferenceable(8)) #1

; Function Attrs: nounwind
declare dso_local double @sqrt(double) #2

declare dso_local i32 @printf(i8*, ...) #1

; Function Attrs: noinline uwtable
define internal void @_GLOBAL__sub_I_275.cpp() #0 section ".text.startup" {
  call void @__cxx_global_var_init()
  ret void
}


!llvm.module.flags = !{!0}
!llvm.ident = !{!1}

!0 = !{i32 1, !"wchar_size", i32 4}
!1 = !{!"clang version 10.0.0-4ubuntu1 "}
